ccopy_reg
_reconstructor
p0
(ctensorflow.python.keras._impl.keras.preprocessing.image
ImageDataGenerator
p1
c__builtin__
object
p2
Ntp3
Rp4
(dp5
S'zoom_range'
p6
(lp7
F1.0
aF1.0
asS'preprocessing_function'
p8
NsS'featurewise_std_normalization'
p9
I00
sS'cval'
p10
F0.0
sS'rotation_range'
p11
F0.0
sS'samplewise_center'
p12
I00
sS'col_axis'
p13
I2
sS'samplewise_std_normalization'
p14
I00
sS'fill_mode'
p15
S'nearest'
p16
sS'channel_axis'
p17
I3
sS'row_axis'
p18
I1
sS'zca_whitening'
p19
I00
sS'featurewise_center'
p20
I00
sS'principal_components'
p21
NsS'shear_range'
p22
F0.0
sS'rescale'
p23
F0.00392156862745098
sS'vertical_flip'
p24
I00
sS'std'
p25
NsS'width_shift_range'
p26
F0.0
sS'channel_shift_range'
p27
F0.0
sS'data_format'
p28
S'channels_last'
p29
sS'height_shift_range'
p30
F0.0
sS'horizontal_flip'
p31
I00
sS'zca_epsilon'
p32
F1e-06
sS'mean'
p33
Nsb.